target datalayout = "e-m:e-p270:32:32-p271:32:32-p272:64:64-i64:64-i128:128-f80:128-n8:16:32:64-S128"
target triple = "x86_64-pc-linux-gnu"

; Function Attrs: nounwind uwtable
define internal void @hor_4x4_c(ptr noundef %0, i64 noundef %1, ptr noundef %2, ptr noundef %3) #1 {
  %5 = alloca ptr, align 8
  %6 = alloca i64, align 8
  %7 = alloca ptr, align 8
  %8 = alloca ptr, align 8
  %9 = alloca ptr, align 8
  %10 = alloca ptr, align 8
  store ptr %0, ptr %5, align 8, !tbaa !10
  store i64 %1, ptr %6, align 8, !tbaa !12
  store ptr %2, ptr %7, align 8, !tbaa !10
  store ptr %3, ptr %8, align 8, !tbaa !10
  call void @llvm.lifetime.start.p0(i64 8, ptr %9) #9
  %11 = load ptr, ptr %5, align 8, !tbaa !10
  store ptr %11, ptr %9, align 8, !tbaa !14
  call void @llvm.lifetime.start.p0(i64 8, ptr %10) #9
  %12 = load ptr, ptr %7, align 8, !tbaa !10
  store ptr %12, ptr %10, align 8, !tbaa !14
  %13 = load i64, ptr %6, align 8, !tbaa !12
  %14 = udiv i64 %13, 2
  store i64 %14, ptr %6, align 8, !tbaa !12
  %15 = load ptr, ptr %10, align 8, !tbaa !14
  %16 = getelementptr inbounds i16, ptr %15, i64 3
  %17 = load i16, ptr %16, align 2, !tbaa !17
  %18 = zext i16 %17 to i64
  %19 = mul i64 %18, 281479271743489
  %20 = load ptr, ptr %9, align 8, !tbaa !14
  %21 = load i64, ptr %6, align 8, !tbaa !12
  %22 = mul nsw i64 %21, 0
  %23 = getelementptr inbounds i16, ptr %20, i64 %22
  store i64 %19, ptr %23, align 8, !tbaa !16
  %24 = load ptr, ptr %10, align 8, !tbaa !14
  %25 = getelementptr inbounds i16, ptr %24, i64 2
  %26 = load i16, ptr %25, align 2, !tbaa !17
  %27 = zext i16 %26 to i64
  %28 = mul i64 %27, 281479271743489
  %29 = load ptr, ptr %9, align 8, !tbaa !14
  %30 = load i64, ptr %6, align 8, !tbaa !12
  %31 = mul nsw i64 %30, 1
  %32 = getelementptr inbounds i16, ptr %29, i64 %31
  store i64 %28, ptr %32, align 8, !tbaa !16
  %33 = load ptr, ptr %10, align 8, !tbaa !14
  %34 = getelementptr inbounds i16, ptr %33, i64 1
  %35 = load i16, ptr %34, align 2, !tbaa !17
  %36 = zext i16 %35 to i64
  %37 = mul i64 %36, 281479271743489
  %38 = load ptr, ptr %9, align 8, !tbaa !14
  %39 = load i64, ptr %6, align 8, !tbaa !12
  %40 = mul nsw i64 %39, 2
  %41 = getelementptr inbounds i16, ptr %38, i64 %40
  store i64 %37, ptr %41, align 8, !tbaa !16
  %42 = load ptr, ptr %10, align 8, !tbaa !14
  %43 = getelementptr inbounds i16, ptr %42, i64 0
  %44 = load i16, ptr %43, align 2, !tbaa !17
  %45 = zext i16 %44 to i64
  %46 = mul i64 %45, 281479271743489
  %47 = load ptr, ptr %9, align 8, !tbaa !14
  %48 = load i64, ptr %6, align 8, !tbaa !12
  %49 = mul nsw i64 %48, 3
  %50 = getelementptr inbounds i16, ptr %47, i64 %49
  store i64 %46, ptr %50, align 8, !tbaa !16
  call void @llvm.lifetime.end.p0(i64 8, ptr %10) #9
  call void @llvm.lifetime.end.p0(i64 8, ptr %9) #9
  ret void
}