; Function Attrs: mustprogress nofree norecurse nosync nounwind willreturn memory(argmem: readwrite) uwtable
define internal void @hor_4x4_c(ptr noundef writeonly captures(none) initializes((0, 8)) %0, i64 noundef %1, ptr noundef readonly captures(none) %2, ptr readnone captures(none) %3) #1 {
  %5 = lshr i64 %1, 1
  %6 = getelementptr inbounds nuw i8, ptr %2, i64 6
  %7 = load i16, ptr %6, align 2, !tbaa !9
  %8 = zext i16 %7 to i64
  %9 = mul nuw i64 %8, 281479271743489
  store i64 %9, ptr %0, align 8, !tbaa !8
  %10 = getelementptr inbounds nuw i8, ptr %2, i64 4
  %11 = load i16, ptr %10, align 2, !tbaa !9
  %12 = zext i16 %11 to i64
  %13 = mul nuw i64 %12, 281479271743489
  %14 = getelementptr inbounds nuw i16, ptr %0, i64 %5
  store i64 %13, ptr %14, align 8, !tbaa !8
  %15 = getelementptr inbounds nuw i8, ptr %2, i64 2
  %16 = load i16, ptr %15, align 2, !tbaa !9
  %17 = zext i16 %16 to i64
  %18 = mul nuw i64 %17, 281479271743489
  %19 = and i64 %1, -2
  %20 = getelementptr inbounds nuw i16, ptr %0, i64 %19
  store i64 %18, ptr %20, align 8, !tbaa !8
  %21 = load i16, ptr %2, align 2, !tbaa !9
  %22 = zext i16 %21 to i64
  %23 = mul nuw i64 %22, 281479271743489
  %.idx = mul nuw nsw i64 %5, 6
  %24 = getelementptr inbounds nuw i8, ptr %0, i64 %.idx
  store i64 %23, ptr %24, align 8, !tbaa !8
  ret void
}